target datalayout = "e-m:e-p270:32:32-p271:32:32-p272:64:64-i64:64-i128:128-f80:128-n8:16:32:64-S128"
target triple = "x86_64-pc-linux-gnu"

%"struct.cv::UMatData" = type { ptr, ptr, i32, i32, ptr, ptr, i64, i32, ptr, ptr, i32, i32, ptr, %"class.std::shared_ptr" }
%"class.std::shared_ptr" = type { %"class.std::__shared_ptr" }
%"class.std::__shared_ptr" = type { ptr, %"class.std::__shared_count" }
%"class.std::__shared_count" = type { ptr }

; Function Attrs: mustprogress nounwind uwtable
define linkonce_odr hidden void @_ZNSt14__shared_countILN9__gnu_cxx12_Lock_policyE2EEC2Ev(ptr noundef nonnull align 8 dereferenceable(8) %0) unnamed_addr #0 comdat align 2 {
  %2 = alloca ptr, align 8
  store ptr %0, ptr %2, align 8, !tbaa !195
  %3 = load ptr, ptr %2, align 8
  %4 = getelementptr inbounds nuw %"class.std::__shared_count", ptr %3, i32 0, i32 0
  store ptr null, ptr %4, align 8, !tbaa !197
  ret void
}

; Function Attrs: mustprogress nounwind uwtable
define linkonce_odr hidden void @_ZNSt12__shared_ptrIvLN9__gnu_cxx12_Lock_policyE2EEC2Ev(ptr noundef nonnull align 8 dereferenceable(16) %0) unnamed_addr #0 comdat align 2 {
  %2 = alloca ptr, align 8
  store ptr %0, ptr %2, align 8, !tbaa !48
  %3 = load ptr, ptr %2, align 8
  %4 = getelementptr inbounds nuw %"class.std::__shared_ptr", ptr %3, i32 0, i32 0
  store ptr null, ptr %4, align 8, !tbaa !194
  %5 = getelementptr inbounds nuw %"class.std::__shared_ptr", ptr %3, i32 0, i32 1
  call void @_ZNSt14__shared_countILN9__gnu_cxx12_Lock_policyE2EEC2Ev(ptr noundef nonnull align 8 dereferenceable(8) %5) #16
  ret void
}

; Function Attrs: mustprogress nounwind uwtable
define linkonce_odr hidden void @_ZNSt10shared_ptrIvEC2Ev(ptr noundef nonnull align 8 dereferenceable(16) %0) unnamed_addr #0 comdat align 2 {
  %2 = alloca ptr, align 8
  store ptr %0, ptr %2, align 8, !tbaa !32
  %3 = load ptr, ptr %2, align 8
  call void @_ZNSt12__shared_ptrIvLN9__gnu_cxx12_Lock_policyE2EEC2Ev(ptr noundef nonnull align 8 dereferenceable(16) %3) #16
  ret void
}

; Function Attrs: mustprogress nounwind uwtable
define void @_ZN2cv8UMatDataC2EPKNS_12MatAllocatorE(ptr noundef nonnull align 8 dereferenceable(104) %0, ptr noundef %1) unnamed_addr #0 align 2 {
  %3 = alloca ptr, align 8
  %4 = alloca ptr, align 8
  store ptr %0, ptr %3, align 8, !tbaa !3
  store ptr %1, ptr %4, align 8, !tbaa !8
  %5 = load ptr, ptr %3, align 8
  %6 = getelementptr inbounds nuw %"struct.cv::UMatData", ptr %5, i32 0, i32 13
  call void @_ZNSt10shared_ptrIvEC2Ev(ptr noundef nonnull align 8 dereferenceable(16) %6) #16
  %7 = load ptr, ptr %4, align 8, !tbaa !8
  %8 = getelementptr inbounds nuw %"struct.cv::UMatData", ptr %5, i32 0, i32 1
  store ptr %7, ptr %8, align 8, !tbaa !10
  %9 = getelementptr inbounds nuw %"struct.cv::UMatData", ptr %5, i32 0, i32 0
  store ptr %7, ptr %9, align 8, !tbaa !20
  %10 = getelementptr inbounds nuw %"struct.cv::UMatData", ptr %5, i32 0, i32 11
  store i32 0, ptr %10, align 4, !tbaa !21
  %11 = getelementptr inbounds nuw %"struct.cv::UMatData", ptr %5, i32 0, i32 3
  store i32 0, ptr %11, align 4, !tbaa !22
  %12 = getelementptr inbounds nuw %"struct.cv::UMatData", ptr %5, i32 0, i32 2
  store i32 0, ptr %12, align 8, !tbaa !23
  %13 = getelementptr inbounds nuw %"struct.cv::UMatData", ptr %5, i32 0, i32 5
  store ptr null, ptr %13, align 8, !tbaa !24
  %14 = getelementptr inbounds nuw %"struct.cv::UMatData", ptr %5, i32 0, i32 4
  store ptr null, ptr %14, align 8, !tbaa !25
  %15 = getelementptr inbounds nuw %"struct.cv::UMatData", ptr %5, i32 0, i32 6
  store i64 0, ptr %15, align 8, !tbaa !26
  %16 = getelementptr inbounds nuw %"struct.cv::UMatData", ptr %5, i32 0, i32 7
  store i32 0, ptr %16, align 8, !tbaa !27
  %17 = getelementptr inbounds nuw %"struct.cv::UMatData", ptr %5, i32 0, i32 8
  store ptr null, ptr %17, align 8, !tbaa !28
  %18 = getelementptr inbounds nuw %"struct.cv::UMatData", ptr %5, i32 0, i32 9
  store ptr null, ptr %18, align 8, !tbaa !29
  %19 = getelementptr inbounds nuw %"struct.cv::UMatData", ptr %5, i32 0, i32 10
  store i32 0, ptr %19, align 8, !tbaa !30
  %20 = getelementptr inbounds nuw %"struct.cv::UMatData", ptr %5, i32 0, i32 12
  store ptr null, ptr %20, align 8, !tbaa !31
  ret void
}